target datalayout = "e-m:e-p270:32:32-p271:32:32-p272:64:64-i64:64-i128:128-f80:128-n8:16:32:64-S128"
target triple = "x86_64-pc-linux-gnu"

; Function Attrs: mustprogress nounwind uwtable
define linkonce_odr noundef nonnull align 4 dereferenceable(4) ptr @_ZSt3maxIiERKT_S2_S2_(ptr noundef nonnull align 4 dereferenceable(4) %0, ptr noundef nonnull align 4 dereferenceable(4) %1) #1 comdat {
  %3 = alloca ptr, align 8
  %4 = alloca ptr, align 8
  %5 = alloca ptr, align 8
  store ptr %0, ptr %4, align 8
  store ptr %1, ptr %5, align 8
  %6 = load ptr, ptr %4, align 8
  %7 = load i32, ptr %6, align 4
  %8 = load ptr, ptr %5, align 8
  %9 = load i32, ptr %8, align 4
  %10 = icmp slt i32 %7, %9
  br i1 %10, label %11, label %13

11:                                               ; preds = %2
  %12 = load ptr, ptr %5, align 8
  store ptr %12, ptr %3, align 8
  br label %15

13:                                               ; preds = %2
  %14 = load ptr, ptr %4, align 8
  store ptr %14, ptr %3, align 8
  br label %15

15:                                               ; preds = %13, %11
  %16 = load ptr, ptr %3, align 8
  ret ptr %16
}

; Function Attrs: mustprogress uwtable
define noundef i32 @_ZN10OpenSubdiv6v3_6_03Bfr4quad25countNonUniformEdgeFacetsEii(i32 noundef %0, i32 noundef %1) #0 align 2 {
  %3 = alloca i32, align 4
  %4 = alloca i32, align 4
  %5 = alloca i32, align 4
  %6 = alloca i32, align 4
  store i32 %0, ptr %3, align 4
  store i32 %1, ptr %4, align 4
  %7 = load i32, ptr %4, align 4
  %8 = sub nsw i32 %7, 2
  store i32 %8, ptr %6, align 4
  %9 = call noundef nonnull align 4 dereferenceable(4) ptr @_ZSt3maxIiERKT_S2_S2_(ptr noundef nonnull align 4 dereferenceable(4) %3, ptr noundef nonnull align 4 dereferenceable(4) %6)
  %10 = load i32, ptr %9, align 4
  store i32 %10, ptr %5, align 4
  %11 = load i32, ptr %5, align 4
  %12 = and i32 %11, 1
  %13 = icmp eq i32 %12, 0
  br i1 %13, label %14, label %27

14:                                               ; preds = %2
  %15 = load i32, ptr %3, align 4
  %16 = and i32 %15, 1
  %17 = icmp ne i32 %16, 0
  br i1 %17, label %22, label %18

18:                                               ; preds = %14
  %19 = load i32, ptr %4, align 4
  %20 = and i32 %19, 1
  %21 = icmp ne i32 %20, 0
  br label %22

22:                                               ; preds = %18, %14
  %23 = phi i1 [ true, %14 ], [ %21, %18 ]
  %24 = zext i1 %23 to i32
  %25 = load i32, ptr %5, align 4
  %26 = add nsw i32 %25, %24
  store i32 %26, ptr %5, align 4
  br label %27

27:                                               ; preds = %22, %2
  %28 = load i32, ptr %5, align 4
  ret i32 %28
}

; Function Attrs: mustprogress uwtable
define noundef i32 @_ZN10OpenSubdiv6v3_6_03Bfr4quad21CountNonUniformFacetsEPKiS4_b(ptr noundef %0, ptr noundef %1, i1 noundef zeroext %2) #0 align 2 {
  %4 = alloca i32, align 4
  %5 = alloca ptr, align 8
  %6 = alloca ptr, align 8
  %7 = alloca i8, align 1
  %8 = alloca i32, align 4
  %9 = alloca i32, align 4
  %10 = alloca i32, align 4
  %11 = alloca i32, align 4
  %12 = alloca i32, align 4
  %13 = alloca i32, align 4
  %14 = alloca [4 x i8], align 1
  %15 = alloca [4 x i8], align 1
  %16 = alloca i32, align 4
  store ptr %0, ptr %5, align 8
  store ptr %1, ptr %6, align 8
  %17 = zext i1 %2 to i8
  store i8 %17, ptr %7, align 1
  %18 = load ptr, ptr %6, align 8
  %19 = getelementptr inbounds i32, ptr %18, i64 0
  %20 = load i32, ptr %19, align 4
  store i32 %20, ptr %8, align 4
  %21 = load ptr, ptr %6, align 8
  %22 = getelementptr inbounds i32, ptr %21, i64 1
  %23 = load i32, ptr %22, align 4
  store i32 %23, ptr %9, align 4
  %24 = load i32, ptr %8, align 4
  %25 = sub nsw i32 %24, 2
  store i32 %25, ptr %10, align 4
  %26 = load i32, ptr %9, align 4
  %27 = sub nsw i32 %26, 2
  store i32 %27, ptr %11, align 4
  %28 = load i32, ptr %10, align 4
  %29 = load i32, ptr %11, align 4
  %30 = mul nsw i32 %28, %29
  store i32 %30, ptr %12, align 4
  %31 = load i8, ptr %7, align 1
  %32 = trunc i8 %31 to i1
  br i1 %32, label %33, label %65

33:                                               ; preds = %3
  %34 = load i32, ptr %12, align 4
  %35 = mul nsw i32 %34, 2
  store i32 %35, ptr %13, align 4
  %36 = load i32, ptr %10, align 4
  %37 = load ptr, ptr %5, align 8
  %38 = getelementptr inbounds i32, ptr %37, i64 0
  %39 = load i32, ptr %38, align 4
  %40 = add nsw i32 %36, %39
  %41 = load i32, ptr %13, align 4
  %42 = add nsw i32 %41, %40
  store i32 %42, ptr %13, align 4
  %43 = load i32, ptr %11, align 4
  %44 = load ptr, ptr %5, align 8
  %45 = getelementptr inbounds i32, ptr %44, i64 1
  %46 = load i32, ptr %45, align 4
  %47 = add nsw i32 %43, %46
  %48 = load i32, ptr %13, align 4
  %49 = add nsw i32 %48, %47
  store i32 %49, ptr %13, align 4
  %50 = load i32, ptr %10, align 4
  %51 = load ptr, ptr %5, align 8
  %52 = getelementptr inbounds i32, ptr %51, i64 2
  %53 = load i32, ptr %52, align 4
  %54 = add nsw i32 %50, %53
  %55 = load i32, ptr %13, align 4
  %56 = add nsw i32 %55, %54
  store i32 %56, ptr %13, align 4
  %57 = load i32, ptr %11, align 4
  %58 = load ptr, ptr %5, align 8
  %59 = getelementptr inbounds i32, ptr %58, i64 3
  %60 = load i32, ptr %59, align 4
  %61 = add nsw i32 %57, %60
  %62 = load i32, ptr %13, align 4
  %63 = add nsw i32 %62, %61
  store i32 %63, ptr %13, align 4
  %64 = load i32, ptr %13, align 4
  store i32 %64, ptr %4, align 4
  br label %229

65:                                               ; preds = %3
  %66 = load ptr, ptr %5, align 8
  %67 = getelementptr inbounds i32, ptr %66, i64 0
  %68 = load i32, ptr %67, align 4
  %69 = load i32, ptr %8, align 4
  %70 = icmp eq i32 %68, %69
  %71 = getelementptr inbounds [4 x i8], ptr %14, i64 0, i64 0
  %72 = zext i1 %70 to i8
  store i8 %72, ptr %71, align 1
  %73 = load ptr, ptr %5, align 8
  %74 = getelementptr inbounds i32, ptr %73, i64 1
  %75 = load i32, ptr %74, align 4
  %76 = load i32, ptr %9, align 4
  %77 = icmp eq i32 %75, %76
  %78 = getelementptr inbounds [4 x i8], ptr %14, i64 0, i64 1
  %79 = zext i1 %77 to i8
  store i8 %79, ptr %78, align 1
  %80 = load ptr, ptr %5, align 8
  %81 = getelementptr inbounds i32, ptr %80, i64 2
  %82 = load i32, ptr %81, align 4
  %83 = load i32, ptr %8, align 4
  %84 = icmp eq i32 %82, %83
  %85 = getelementptr inbounds [4 x i8], ptr %14, i64 0, i64 2
  %86 = zext i1 %84 to i8
  store i8 %86, ptr %85, align 1
  %87 = load ptr, ptr %5, align 8
  %88 = getelementptr inbounds i32, ptr %87, i64 3
  %89 = load i32, ptr %88, align 4
  %90 = load i32, ptr %9, align 4
  %91 = icmp eq i32 %89, %90
  %92 = getelementptr inbounds [4 x i8], ptr %14, i64 0, i64 3
  %93 = zext i1 %91 to i8
  store i8 %93, ptr %92, align 1
  %94 = getelementptr inbounds [4 x i8], ptr %14, i64 0, i64 0
  %95 = load i8, ptr %94, align 1
  %96 = trunc i8 %95 to i1
  br i1 %96, label %97, label %101

97:                                               ; preds = %65
  %98 = getelementptr inbounds [4 x i8], ptr %14, i64 0, i64 3
  %99 = load i8, ptr %98, align 1
  %100 = trunc i8 %99 to i1
  br label %101

101:                                              ; preds = %97, %65
  %102 = phi i1 [ false, %65 ], [ %100, %97 ]
  %103 = getelementptr inbounds [4 x i8], ptr %15, i64 0, i64 0
  %104 = zext i1 %102 to i8
  store i8 %104, ptr %103, align 1
  %105 = getelementptr inbounds [4 x i8], ptr %14, i64 0, i64 1
  %106 = load i8, ptr %105, align 1
  %107 = trunc i8 %106 to i1
  br i1 %107, label %108, label %112

108:                                              ; preds = %101
  %109 = getelementptr inbounds [4 x i8], ptr %14, i64 0, i64 0
  %110 = load i8, ptr %109, align 1
  %111 = trunc i8 %110 to i1
  br label %112

112:                                              ; preds = %108, %101
  %113 = phi i1 [ false, %101 ], [ %111, %108 ]
  %114 = getelementptr inbounds [4 x i8], ptr %15, i64 0, i64 1
  %115 = zext i1 %113 to i8
  store i8 %115, ptr %114, align 1
  %116 = getelementptr inbounds [4 x i8], ptr %14, i64 0, i64 2
  %117 = load i8, ptr %116, align 1
  %118 = trunc i8 %117 to i1
  br i1 %118, label %119, label %123

119:                                              ; preds = %112
  %120 = getelementptr inbounds [4 x i8], ptr %14, i64 0, i64 1
  %121 = load i8, ptr %120, align 1
  %122 = trunc i8 %121 to i1
  br label %123

123:                                              ; preds = %119, %112
  %124 = phi i1 [ false, %112 ], [ %122, %119 ]
  %125 = getelementptr inbounds [4 x i8], ptr %15, i64 0, i64 2
  %126 = zext i1 %124 to i8
  store i8 %126, ptr %125, align 1
  %127 = getelementptr inbounds [4 x i8], ptr %14, i64 0, i64 3
  %128 = load i8, ptr %127, align 1
  %129 = trunc i8 %128 to i1
  br i1 %129, label %130, label %134

130:                                              ; preds = %123
  %131 = getelementptr inbounds [4 x i8], ptr %14, i64 0, i64 2
  %132 = load i8, ptr %131, align 1
  %133 = trunc i8 %132 to i1
  br label %134

134:                                              ; preds = %130, %123
  %135 = phi i1 [ false, %123 ], [ %133, %130 ]
  %136 = getelementptr inbounds [4 x i8], ptr %15, i64 0, i64 3
  %137 = zext i1 %135 to i8
  store i8 %137, ptr %136, align 1
  store i32 0, ptr %16, align 4
  %138 = getelementptr inbounds [4 x i8], ptr %14, i64 0, i64 0
  %139 = load i8, ptr %138, align 1
  %140 = trunc i8 %139 to i1
  br i1 %140, label %141, label %150

141:                                              ; preds = %134
  %142 = load i32, ptr %10, align 4
  %143 = add nsw i32 %142, 1
  %144 = getelementptr inbounds [4 x i8], ptr %15, i64 0, i64 1
  %145 = load i8, ptr %144, align 1
  %146 = trunc i8 %145 to i1
  %147 = xor i1 %146, true
  %148 = zext i1 %147 to i32
  %149 = add nsw i32 %143, %148
  br label %156

150:                                              ; preds = %134
  %151 = load ptr, ptr %5, align 8
  %152 = getelementptr inbounds i32, ptr %151, i64 0
  %153 = load i32, ptr %152, align 4
  %154 = load i32, ptr %8, align 4
  %155 = call noundef i32 @_ZN10OpenSubdiv6v3_6_03Bfr4quad25countNonUniformEdgeFacetsEii(i32 noundef %153, i32 noundef %154)
  br label %156

156:                                              ; preds = %150, %141
  %157 = phi i32 [ %149, %141 ], [ %155, %150 ]
  %158 = load i32, ptr %16, align 4
  %159 = add nsw i32 %158, %157
  store i32 %159, ptr %16, align 4
  %160 = getelementptr inbounds [4 x i8], ptr %14, i64 0, i64 1
  %161 = load i8, ptr %160, align 1
  %162 = trunc i8 %161 to i1
  br i1 %162, label %163, label %172

163:                                              ; preds = %156
  %164 = load i32, ptr %11, align 4
  %165 = add nsw i32 %164, 1
  %166 = getelementptr inbounds [4 x i8], ptr %15, i64 0, i64 2
  %167 = load i8, ptr %166, align 1
  %168 = trunc i8 %167 to i1
  %169 = xor i1 %168, true
  %170 = zext i1 %169 to i32
  %171 = add nsw i32 %165, %170
  br label %178

172:                                              ; preds = %156
  %173 = load ptr, ptr %5, align 8
  %174 = getelementptr inbounds i32, ptr %173, i64 1
  %175 = load i32, ptr %174, align 4
  %176 = load i32, ptr %9, align 4
  %177 = call noundef i32 @_ZN10OpenSubdiv6v3_6_03Bfr4quad25countNonUniformEdgeFacetsEii(i32 noundef %175, i32 noundef %176)
  br label %178

178:                                              ; preds = %172, %163
  %179 = phi i32 [ %171, %163 ], [ %177, %172 ]
  %180 = load i32, ptr %16, align 4
  %181 = add nsw i32 %180, %179
  store i32 %181, ptr %16, align 4
  %182 = getelementptr inbounds [4 x i8], ptr %14, i64 0, i64 2
  %183 = load i8, ptr %182, align 1
  %184 = trunc i8 %183 to i1
  br i1 %184, label %185, label %194

185:                                              ; preds = %178
  %186 = load i32, ptr %10, align 4
  %187 = add nsw i32 %186, 1
  %188 = getelementptr inbounds [4 x i8], ptr %15, i64 0, i64 3
  %189 = load i8, ptr %188, align 1
  %190 = trunc i8 %189 to i1
  %191 = xor i1 %190, true
  %192 = zext i1 %191 to i32
  %193 = add nsw i32 %187, %192
  br label %200

194:                                              ; preds = %178
  %195 = load ptr, ptr %5, align 8
  %196 = getelementptr inbounds i32, ptr %195, i64 2
  %197 = load i32, ptr %196, align 4
  %198 = load i32, ptr %8, align 4
  %199 = call noundef i32 @_ZN10OpenSubdiv6v3_6_03Bfr4quad25countNonUniformEdgeFacetsEii(i32 noundef %197, i32 noundef %198)
  br label %200

200:                                              ; preds = %194, %185
  %201 = phi i32 [ %193, %185 ], [ %199, %194 ]
  %202 = load i32, ptr %16, align 4
  %203 = add nsw i32 %202, %201
  store i32 %203, ptr %16, align 4
  %204 = getelementptr inbounds [4 x i8], ptr %14, i64 0, i64 3
  %205 = load i8, ptr %204, align 1
  %206 = trunc i8 %205 to i1
  br i1 %206, label %207, label %216

207:                                              ; preds = %200
  %208 = load i32, ptr %11, align 4
  %209 = add nsw i32 %208, 1
  %210 = getelementptr inbounds [4 x i8], ptr %15, i64 0, i64 0
  %211 = load i8, ptr %210, align 1
  %212 = trunc i8 %211 to i1
  %213 = xor i1 %212, true
  %214 = zext i1 %213 to i32
  %215 = add nsw i32 %209, %214
  br label %222

216:                                              ; preds = %200
  %217 = load ptr, ptr %5, align 8
  %218 = getelementptr inbounds i32, ptr %217, i64 3
  %219 = load i32, ptr %218, align 4
  %220 = load i32, ptr %9, align 4
  %221 = call noundef i32 @_ZN10OpenSubdiv6v3_6_03Bfr4quad25countNonUniformEdgeFacetsEii(i32 noundef %219, i32 noundef %220)
  br label %222

222:                                              ; preds = %216, %207
  %223 = phi i32 [ %215, %207 ], [ %221, %216 ]
  %224 = load i32, ptr %16, align 4
  %225 = add nsw i32 %224, %223
  store i32 %225, ptr %16, align 4
  %226 = load i32, ptr %12, align 4
  %227 = load i32, ptr %16, align 4
  %228 = add nsw i32 %226, %227
  store i32 %228, ptr %4, align 4
  br label %229

229:                                              ; preds = %222, %33
  %230 = load i32, ptr %4, align 4
  ret i32 %230
}