; Function Attrs: mustprogress nofree norecurse nosync nounwind willreturn memory(argmem: read) uwtable
define noundef i32 @_ZN10OpenSubdiv6v3_6_03Bfr4quad21CountNonUniformFacetsEPKiS4_b(ptr nocapture noundef readonly %0, ptr nocapture noundef readonly %1, i1 noundef zeroext %2) local_unnamed_addr #5 align 2 {
  %4 = load i32, ptr %1, align 4
  %5 = getelementptr inbounds i8, ptr %1, i64 4
  %6 = load i32, ptr %5, align 4
  %7 = add nsw i32 %4, -2
  %8 = add nsw i32 %6, -2
  %9 = mul nsw i32 %8, %7
  %10 = load i32, ptr %0, align 4
  br i1 %2, label %11, label %22

11:                                               ; preds = %3
  %12 = getelementptr inbounds i8, ptr %0, i64 4
  %13 = load i32, ptr %12, align 4
  %14 = getelementptr inbounds i8, ptr %0, i64 8
  %15 = load i32, ptr %14, align 4
  %16 = getelementptr inbounds i8, ptr %0, i64 12
  %17 = load i32, ptr %16, align 4
  %reass.add = add i32 %8, %7
  %reass.add68 = add i32 %reass.add, %9
  %reass.mul = shl i32 %reass.add68, 1
  %18 = add i32 %13, %10
  %19 = add i32 %18, %15
  %20 = add i32 %19, %17
  %21 = add i32 %20, %reass.mul
  br label %92

22:                                               ; preds = %3
  %23 = icmp eq i32 %10, %4
  %24 = getelementptr inbounds i8, ptr %0, i64 4
  %25 = load i32, ptr %24, align 4
  %26 = icmp eq i32 %25, %6
  %27 = getelementptr inbounds i8, ptr %0, i64 8
  %28 = load i32, ptr %27, align 4
  %29 = icmp eq i32 %28, %4
  %30 = getelementptr inbounds i8, ptr %0, i64 12
  %31 = load i32, ptr %30, align 4
  %32 = icmp eq i32 %31, %6
  %33 = select i1 %23, i1 %32, i1 false
  %34 = select i1 %29, i1 %26, i1 false
  %35 = select i1 %32, i1 %29, i1 false
  br i1 %23, label %36, label %41

36:                                               ; preds = %22
  %37 = add nsw i32 %4, -1
  %38 = xor i1 %26, true
  %39 = zext i1 %38 to i32
  %40 = add nsw i32 %37, %39
  br label %47

41:                                               ; preds = %22
  %.sroa.speculated.i = tail call i32 @llvm.smax.i32(i32 %10, i32 %7)
  %42 = and i32 %.sroa.speculated.i, 1
  %43 = icmp eq i32 %42, 0
  %44 = or i32 %10, %4
  %45 = and i32 %44, 1
  %46 = select i1 %43, i32 %45, i32 0
  %.0.i = or disjoint i32 %46, %.sroa.speculated.i
  br label %47

47:                                               ; preds = %41, %36
  %48 = phi i32 [ %40, %36 ], [ %.0.i, %41 ]
  br i1 %26, label %49, label %54

49:                                               ; preds = %47
  %50 = add nsw i32 %6, -1
  %51 = xor i1 %34, true
  %52 = zext i1 %51 to i32
  %53 = add nsw i32 %50, %52
  br label %60

54:                                               ; preds = %47
  %.sroa.speculated.i61 = tail call i32 @llvm.smax.i32(i32 %25, i32 %8)
  %55 = and i32 %.sroa.speculated.i61, 1
  %56 = icmp eq i32 %55, 0
  %57 = or i32 %25, %6
  %58 = and i32 %57, 1
  %59 = select i1 %56, i32 %58, i32 0
  %.0.i62 = or disjoint i32 %59, %.sroa.speculated.i61
  br label %60

60:                                               ; preds = %54, %49
  %61 = phi i32 [ %53, %49 ], [ %.0.i62, %54 ]
  br i1 %29, label %62, label %67

62:                                               ; preds = %60
  %63 = add nsw i32 %4, -1
  %64 = xor i1 %35, true
  %65 = zext i1 %64 to i32
  %66 = add nsw i32 %63, %65
  br label %73

67:                                               ; preds = %60
  %.sroa.speculated.i63 = tail call i32 @llvm.smax.i32(i32 %28, i32 %7)
  %68 = and i32 %.sroa.speculated.i63, 1
  %69 = icmp eq i32 %68, 0
  %70 = or i32 %28, %4
  %71 = and i32 %70, 1
  %72 = select i1 %69, i32 %71, i32 0
  %.0.i64 = or disjoint i32 %72, %.sroa.speculated.i63
  br label %73

73:                                               ; preds = %67, %62
  %74 = phi i32 [ %66, %62 ], [ %.0.i64, %67 ]
  br i1 %32, label %75, label %80

75:                                               ; preds = %73
  %76 = add nsw i32 %6, -1
  %77 = xor i1 %33, true
  %78 = zext i1 %77 to i32
  %79 = add nsw i32 %76, %78
  br label %86

80:                                               ; preds = %73
  %.sroa.speculated.i65 = tail call i32 @llvm.smax.i32(i32 %31, i32 %8)
  %81 = and i32 %.sroa.speculated.i65, 1
  %82 = icmp eq i32 %81, 0
  %83 = or i32 %31, %6
  %84 = and i32 %83, 1
  %85 = select i1 %82, i32 %84, i32 0
  %.0.i66 = or disjoint i32 %85, %.sroa.speculated.i65
  br label %86

86:                                               ; preds = %80, %75
  %87 = phi i32 [ %79, %75 ], [ %.0.i66, %80 ]
  %88 = add i32 %48, %9
  %89 = add i32 %88, %61
  %90 = add i32 %89, %74
  %91 = add i32 %90, %87
  br label %92

92:                                               ; preds = %86, %11
  %.0 = phi i32 [ %21, %11 ], [ %91, %86 ]
  ret i32 %.0
}